; Function Attrs: mustprogress nofree norecurse nosync nounwind willreturn memory(write, argmem: readwrite, inaccessiblemem: none) uwtable
define hidden void @_ZN10statistics5resetEv(ptr nocapture noundef nonnull readonly align 8 dereferenceable(16) %this) local_unnamed_addr #4 align 2 {
entry:
  %0 = load ptr, ptr %this, align 8
  %tobool.not.i = icmp eq ptr %0, null
  br i1 %tobool.not.i, label %_ZN6vectorISt4pairIPKcjELb0EjE5resetEv.exit, label %if.then.i

if.then.i:                                        ; preds = %entry
  %arrayidx.i = getelementptr inbounds i8, ptr %0, i64 -4
  store i32 0, ptr %arrayidx.i, align 4
  br label %_ZN6vectorISt4pairIPKcjELb0EjE5resetEv.exit

_ZN6vectorISt4pairIPKcjELb0EjE5resetEv.exit:      ; preds = %entry, %if.then.i
  %m_d_stats = getelementptr inbounds i8, ptr %this, i64 8
  %1 = load ptr, ptr %m_d_stats, align 8
  %tobool.not.i1 = icmp eq ptr %1, null
  br i1 %tobool.not.i1, label %_ZN6vectorISt4pairIPKcdELb0EjE5resetEv.exit, label %if.then.i2

if.then.i2:                                       ; preds = %_ZN6vectorISt4pairIPKcjELb0EjE5resetEv.exit
  %arrayidx.i3 = getelementptr inbounds i8, ptr %1, i64 -4
  store i32 0, ptr %arrayidx.i3, align 4
  br label %_ZN6vectorISt4pairIPKcdELb0EjE5resetEv.exit

_ZN6vectorISt4pairIPKcdELb0EjE5resetEv.exit:      ; preds = %_ZN6vectorISt4pairIPKcjELb0EjE5resetEv.exit, %if.then.i2
  ret void
}